target datalayout = "e-m:e-p270:32:32-p271:32:32-p272:64:64-i64:64-i128:128-f80:128-n8:16:32:64-S128"
target triple = "x86_64-pc-linux-gnu"

%struct.UList = type { ptr, ptr, ptr, i32 }
%struct.UListNode = type { ptr, ptr, ptr, i8 }

; Function Attrs: mustprogress uwtable
define internal void @_ZL16ulist_removeItemP5UListP9UListNode(ptr noundef %0, ptr noundef %1) #0 {
  %3 = alloca ptr, align 8
  %4 = alloca ptr, align 8
  store ptr %0, ptr %3, align 8, !tbaa !7
  store ptr %1, ptr %4, align 8, !tbaa !19
  %5 = load ptr, ptr %4, align 8, !tbaa !19
  %6 = getelementptr inbounds nuw %struct.UListNode, ptr %5, i32 0, i32 2
  %7 = load ptr, ptr %6, align 8, !tbaa !24
  %8 = icmp eq ptr %7, null
  br i1 %8, label %9, label %15

9:                                                ; preds = %2
  %10 = load ptr, ptr %4, align 8, !tbaa !19
  %11 = getelementptr inbounds nuw %struct.UListNode, ptr %10, i32 0, i32 1
  %12 = load ptr, ptr %11, align 8, !tbaa !23
  %13 = load ptr, ptr %3, align 8, !tbaa !7
  %14 = getelementptr inbounds nuw %struct.UList, ptr %13, i32 0, i32 1
  store ptr %12, ptr %14, align 8, !tbaa !15
  br label %23

15:                                               ; preds = %2
  %16 = load ptr, ptr %4, align 8, !tbaa !19
  %17 = getelementptr inbounds nuw %struct.UListNode, ptr %16, i32 0, i32 1
  %18 = load ptr, ptr %17, align 8, !tbaa !23
  %19 = load ptr, ptr %4, align 8, !tbaa !19
  %20 = getelementptr inbounds nuw %struct.UListNode, ptr %19, i32 0, i32 2
  %21 = load ptr, ptr %20, align 8, !tbaa !24
  %22 = getelementptr inbounds nuw %struct.UListNode, ptr %21, i32 0, i32 1
  store ptr %18, ptr %22, align 8, !tbaa !23
  br label %23

23:                                               ; preds = %15, %9
  %24 = load ptr, ptr %4, align 8, !tbaa !19
  %25 = getelementptr inbounds nuw %struct.UListNode, ptr %24, i32 0, i32 1
  %26 = load ptr, ptr %25, align 8, !tbaa !23
  %27 = icmp eq ptr %26, null
  br i1 %27, label %28, label %34

28:                                               ; preds = %23
  %29 = load ptr, ptr %4, align 8, !tbaa !19
  %30 = getelementptr inbounds nuw %struct.UListNode, ptr %29, i32 0, i32 2
  %31 = load ptr, ptr %30, align 8, !tbaa !24
  %32 = load ptr, ptr %3, align 8, !tbaa !7
  %33 = getelementptr inbounds nuw %struct.UList, ptr %32, i32 0, i32 2
  store ptr %31, ptr %33, align 8, !tbaa !16
  br label %42

34:                                               ; preds = %23
  %35 = load ptr, ptr %4, align 8, !tbaa !19
  %36 = getelementptr inbounds nuw %struct.UListNode, ptr %35, i32 0, i32 2
  %37 = load ptr, ptr %36, align 8, !tbaa !24
  %38 = load ptr, ptr %4, align 8, !tbaa !19
  %39 = getelementptr inbounds nuw %struct.UListNode, ptr %38, i32 0, i32 1
  %40 = load ptr, ptr %39, align 8, !tbaa !23
  %41 = getelementptr inbounds nuw %struct.UListNode, ptr %40, i32 0, i32 2
  store ptr %37, ptr %41, align 8, !tbaa !24
  br label %42

42:                                               ; preds = %34, %28
  %43 = load ptr, ptr %4, align 8, !tbaa !19
  %44 = load ptr, ptr %3, align 8, !tbaa !7
  %45 = getelementptr inbounds nuw %struct.UList, ptr %44, i32 0, i32 0
  %46 = load ptr, ptr %45, align 8, !tbaa !11
  %47 = icmp eq ptr %43, %46
  br i1 %47, label %48, label %54

48:                                               ; preds = %42
  %49 = load ptr, ptr %4, align 8, !tbaa !19
  %50 = getelementptr inbounds nuw %struct.UListNode, ptr %49, i32 0, i32 1
  %51 = load ptr, ptr %50, align 8, !tbaa !23
  %52 = load ptr, ptr %3, align 8, !tbaa !7
  %53 = getelementptr inbounds nuw %struct.UList, ptr %52, i32 0, i32 0
  store ptr %51, ptr %53, align 8, !tbaa !11
  br label %54

54:                                               ; preds = %48, %42
  %55 = load ptr, ptr %3, align 8, !tbaa !7
  %56 = getelementptr inbounds nuw %struct.UList, ptr %55, i32 0, i32 3
  %57 = load i32, ptr %56, align 8, !tbaa !17
  %58 = add nsw i32 %57, -1
  store i32 %58, ptr %56, align 8, !tbaa !17
  %59 = load ptr, ptr %4, align 8, !tbaa !19
  %60 = getelementptr inbounds nuw %struct.UListNode, ptr %59, i32 0, i32 3
  %61 = load i8, ptr %60, align 8, !tbaa !22
  %62 = icmp ne i8 %61, 0
  br i1 %62, label %63, label %67

63:                                               ; preds = %54
  %64 = load ptr, ptr %4, align 8, !tbaa !19
  %65 = getelementptr inbounds nuw %struct.UListNode, ptr %64, i32 0, i32 0
  %66 = load ptr, ptr %65, align 8, !tbaa !20
  call void @uprv_free_77(ptr noundef %66)
  br label %67

67:                                               ; preds = %63, %54
  %68 = load ptr, ptr %4, align 8, !tbaa !19
  call void @uprv_free_77(ptr noundef %68)
  ret void
}

; Function Attrs: mustprogress uwtable
define signext i8 @ulist_removeString_77(ptr noundef %0, ptr noundef %1) #0 {
  %3 = alloca i8, align 1
  %4 = alloca ptr, align 8
  %5 = alloca ptr, align 8
  %6 = alloca ptr, align 8
  %7 = alloca i32, align 4
  store ptr %0, ptr %4, align 8, !tbaa !7
  store ptr %1, ptr %5, align 8, !tbaa !25
  %8 = load ptr, ptr %4, align 8, !tbaa !7
  %9 = icmp ne ptr %8, null
  br i1 %9, label %10, label %36

10:                                               ; preds = %2
  call void @llvm.lifetime.start.p0(i64 8, ptr %6) #7
  %11 = load ptr, ptr %4, align 8, !tbaa !7
  %12 = getelementptr inbounds nuw %struct.UList, ptr %11, i32 0, i32 1
  %13 = load ptr, ptr %12, align 8, !tbaa !15
  store ptr %13, ptr %6, align 8, !tbaa !19
  br label %14

14:                                               ; preds = %28, %10
  %15 = load ptr, ptr %6, align 8, !tbaa !19
  %16 = icmp ne ptr %15, null
  br i1 %16, label %17, label %32

17:                                               ; preds = %14
  %18 = load ptr, ptr %5, align 8, !tbaa !25
  %19 = load ptr, ptr %6, align 8, !tbaa !19
  %20 = getelementptr inbounds nuw %struct.UListNode, ptr %19, i32 0, i32 0
  %21 = load ptr, ptr %20, align 8, !tbaa !20
  %22 = call i32 @strcmp(ptr noundef %18, ptr noundef %21) #9
  %23 = icmp eq i32 %22, 0
  br i1 %23, label %24, label %27

24:                                               ; preds = %17
  %25 = load ptr, ptr %4, align 8, !tbaa !7
  %26 = load ptr, ptr %6, align 8, !tbaa !19
  call void @_ZL16ulist_removeItemP5UListP9UListNode(ptr noundef %25, ptr noundef %26)
  store i8 1, ptr %3, align 1
  store i32 1, ptr %7, align 4
  br label %33

27:                                               ; preds = %17
  br label %28

28:                                               ; preds = %27
  %29 = load ptr, ptr %6, align 8, !tbaa !19
  %30 = getelementptr inbounds nuw %struct.UListNode, ptr %29, i32 0, i32 1
  %31 = load ptr, ptr %30, align 8, !tbaa !23
  store ptr %31, ptr %6, align 8, !tbaa !19
  br label %14, !llvm.loop !30

32:                                               ; preds = %14
  store i32 0, ptr %7, align 4
  br label %33

33:                                               ; preds = %32, %24
  call void @llvm.lifetime.end.p0(i64 8, ptr %6) #7
  %34 = load i32, ptr %7, align 4
  switch i32 %34, label %39 [
    i32 0, label %35
    i32 1, label %37
  ]

35:                                               ; preds = %33
  br label %36

36:                                               ; preds = %35, %2
  store i8 0, ptr %3, align 1
  br label %37

37:                                               ; preds = %36, %33
  %38 = load i8, ptr %3, align 1
  ret i8 %38

39:                                               ; preds = %33
  unreachable
}