; Function Attrs: mustprogress uwtable
define signext range(i8 0, 2) i8 @ulist_removeString_77(ptr noundef %0, ptr noundef readonly captures(none) %1) local_unnamed_addr #0 {
  %.not = icmp eq ptr %0, null
  br i1 %.not, label %.thread, label %.preheader

.preheader:                                       ; preds = %2, %3
  %.pn = phi ptr [ %.09, %3 ], [ %0, %2 ]
  %.09.in = getelementptr inbounds nuw i8, ptr %.pn, i64 8
  %.09 = load ptr, ptr %.09.in, align 8, !tbaa !19
  %.not12.not = icmp eq ptr %.09, null
  br i1 %.not12.not, label %.thread, label %3

3:                                                ; preds = %.preheader
  %4 = load ptr, ptr %.09, align 8, !tbaa !7
  %5 = tail call i32 @strcmp(ptr noundef nonnull dereferenceable(1) %1, ptr noundef nonnull dereferenceable(1) %4) #14
  %6 = icmp eq i32 %5, 0
  br i1 %6, label %7, label %.preheader, !llvm.loop !22

7:                                                ; preds = %3
  %8 = getelementptr inbounds nuw i8, ptr %.09, i64 16
  %9 = load ptr, ptr %8, align 8, !tbaa !18
  %10 = icmp eq ptr %9, null
  %11 = getelementptr inbounds nuw i8, ptr %.09, i64 8
  %12 = load ptr, ptr %11, align 8, !tbaa !17
  %..i = select i1 %10, ptr %0, ptr %9
  %13 = getelementptr inbounds nuw i8, ptr %..i, i64 8
  store ptr %12, ptr %13, align 8, !tbaa !19
  %14 = icmp eq ptr %12, null
  %.sink20.i = select i1 %14, ptr %0, ptr %12
  %15 = getelementptr inbounds nuw i8, ptr %.sink20.i, i64 16
  store ptr %9, ptr %15, align 8, !tbaa !19
  %16 = load ptr, ptr %0, align 8, !tbaa !23
  %17 = icmp eq ptr %.09, %16
  br i1 %17, label %18, label %19

18:                                               ; preds = %7
  store ptr %12, ptr %0, align 8, !tbaa !23
  br label %19

19:                                               ; preds = %18, %7
  %20 = getelementptr inbounds nuw i8, ptr %0, i64 24
  %21 = load i32, ptr %20, align 8, !tbaa !12
  %22 = add nsw i32 %21, -1
  store i32 %22, ptr %20, align 8, !tbaa !12
  %23 = getelementptr inbounds nuw i8, ptr %.09, i64 24
  %24 = load i8, ptr %23, align 8, !tbaa !11
  %.not.i = icmp eq i8 %24, 0
  br i1 %.not.i, label %26, label %25

25:                                               ; preds = %19
  tail call void @uprv_free_77(ptr noundef nonnull %4)
  br label %26

26:                                               ; preds = %25, %19
  tail call void @uprv_free_77(ptr noundef nonnull %.09)
  br label %.thread

.thread:                                          ; preds = %.preheader, %2, %26
  %.1 = phi i8 [ 1, %26 ], [ 0, %2 ], [ 0, %.preheader ]
  ret i8 %.1
}